target datalayout = "e-m:e-p270:32:32-p271:32:32-p272:64:64-i64:64-i128:128-f80:128-n8:16:32:64-S128"
target triple = "x86_64-pc-linux-gnu"

%"struct.Luau::Position" = type { i32, i32 }
%"struct.Luau::Location" = type { %"struct.Luau::Position", %"struct.Luau::Position" }
%"class.Luau::AstNode.base" = type <{ ptr, i32, %"struct.Luau::Location" }>
%"struct.Luau::AstArray.315" = type { ptr, i64 }
%"class.Luau::AstNode" = type <{ ptr, i32, %"struct.Luau::Location", [4 x i8] }>
%"class.Luau::AstExpr.base" = type { %"class.Luau::AstNode.base" }
%"class.Luau::AstExprInterpString" = type { %"class.Luau::AstExpr.base", %"struct.Luau::AstArray.837", %"struct.Luau::AstArray.315" }
%"struct.Luau::AstArray.837" = type { ptr, i64 }

@_ZN4Luau7AstRttiINS_19AstExprInterpStringEE5valueE = linkonce_odr dso_local global i32 0, comdat, align 4

; Function Attrs: mustprogress nounwind uwtable
define linkonce_odr dso_local noundef i32 @_ZN4Luau19AstExprInterpString10ClassIndexEv() #2 comdat align 2 {
  %1 = load i32, ptr @_ZN4Luau7AstRttiINS_19AstExprInterpStringEE5valueE, align 4, !tbaa !4
  ret i32 %1
}

; Function Attrs: mustprogress nounwind uwtable
define linkonce_odr dso_local noundef ptr @_ZNK4Luau8AstArrayIPNS_7AstExprEE3endEv(ptr noundef nonnull align 8 dereferenceable(16) %0) #2 comdat align 2 {
  %2 = alloca ptr, align 8
  store ptr %0, ptr %2, align 8, !tbaa !501
  %3 = load ptr, ptr %2, align 8
  %4 = getelementptr inbounds nuw %"struct.Luau::AstArray.315", ptr %3, i32 0, i32 0
  %5 = load ptr, ptr %4, align 8, !tbaa !1980
  %6 = getelementptr inbounds nuw %"struct.Luau::AstArray.315", ptr %3, i32 0, i32 1
  %7 = load i64, ptr %6, align 8, !tbaa !1981
  %8 = getelementptr inbounds nuw ptr, ptr %5, i64 %7
  ret ptr %8
}

; Function Attrs: mustprogress nounwind uwtable
define linkonce_odr dso_local noundef ptr @_ZNK4Luau8AstArrayIPNS_7AstExprEE5beginEv(ptr noundef nonnull align 8 dereferenceable(16) %0) #2 comdat align 2 {
  %2 = alloca ptr, align 8
  store ptr %0, ptr %2, align 8, !tbaa !501
  %3 = load ptr, ptr %2, align 8
  %4 = getelementptr inbounds nuw %"struct.Luau::AstArray.315", ptr %3, i32 0, i32 0
  %5 = load ptr, ptr %4, align 8, !tbaa !1980
  ret ptr %5
}

; Function Attrs: mustprogress uwtable
define linkonce_odr dso_local noundef ptr @_ZNK4Luau7AstNode2asINS_19AstExprInterpStringEEEPKT_v(ptr noundef nonnull align 8 dereferenceable(28) %0) #6 comdat align 2 {
  %2 = alloca ptr, align 8
  store ptr %0, ptr %2, align 8, !tbaa !194
  %3 = load ptr, ptr %2, align 8
  %4 = getelementptr inbounds nuw %"class.Luau::AstNode", ptr %3, i32 0, i32 1
  %5 = load i32, ptr %4, align 8, !tbaa !295
  %6 = call noundef i32 @_ZN4Luau19AstExprInterpString10ClassIndexEv()
  %7 = icmp eq i32 %5, %6
  br i1 %7, label %8, label %9

8:                                                ; preds = %1
  br label %10

9:                                                ; preds = %1
  br label %10

10:                                               ; preds = %9, %8
  %11 = phi ptr [ %3, %8 ], [ null, %9 ]
  ret ptr %11
}

; Function Attrs: mustprogress uwtable
define internal noundef zeroext i1 @_ZN4LuauL24stringPartOfInterpStringEPKNS_7AstNodeENS_8PositionE(ptr noundef %0, i64 %1) #6 {
  %3 = alloca i1, align 1
  %4 = alloca %"struct.Luau::Position", align 4
  %5 = alloca ptr, align 8
  %6 = alloca ptr, align 8
  %7 = alloca i32, align 4
  %8 = alloca ptr, align 8
  %9 = alloca ptr, align 8
  %10 = alloca ptr, align 8
  %11 = alloca ptr, align 8
  store i64 %1, ptr %4, align 4
  store ptr %0, ptr %5, align 8, !tbaa !194
  call void @llvm.lifetime.start.p0(i64 8, ptr %6) #4
  %12 = load ptr, ptr %5, align 8, !tbaa !194
  %13 = call noundef ptr @_ZNK4Luau7AstNode2asINS_19AstExprInterpStringEEEPKT_v(ptr noundef nonnull align 8 dereferenceable(28) %12)
  store ptr %13, ptr %6, align 8, !tbaa !495
  %14 = load ptr, ptr %6, align 8, !tbaa !495
  %15 = icmp ne ptr %14, null
  br i1 %15, label %17, label %16

16:                                               ; preds = %2
  store i1 false, ptr %3, align 1
  store i32 1, ptr %7, align 4
  br label %46

17:                                               ; preds = %2
  call void @llvm.lifetime.start.p0(i64 8, ptr %8) #4
  %18 = load ptr, ptr %6, align 8, !tbaa !495
  %19 = getelementptr inbounds nuw %"class.Luau::AstExprInterpString", ptr %18, i32 0, i32 2
  store ptr %19, ptr %8, align 8, !tbaa !501
  call void @llvm.lifetime.start.p0(i64 8, ptr %9) #4
  %20 = load ptr, ptr %8, align 8, !tbaa !501
  %21 = call noundef ptr @_ZNK4Luau8AstArrayIPNS_7AstExprEE5beginEv(ptr noundef nonnull align 8 dereferenceable(16) %20)
  store ptr %21, ptr %9, align 8, !tbaa !298
  call void @llvm.lifetime.start.p0(i64 8, ptr %10) #4
  %22 = load ptr, ptr %8, align 8, !tbaa !501
  %23 = call noundef ptr @_ZNK4Luau8AstArrayIPNS_7AstExprEE3endEv(ptr noundef nonnull align 8 dereferenceable(16) %22)
  store ptr %23, ptr %10, align 8, !tbaa !298
  br label %24

24:                                               ; preds = %40, %17
  %25 = load ptr, ptr %9, align 8, !tbaa !298
  %26 = load ptr, ptr %10, align 8, !tbaa !298
  %27 = icmp ne ptr %25, %26
  br i1 %27, label %29, label %28

28:                                               ; preds = %24
  store i32 2, ptr %7, align 4
  br label %43

29:                                               ; preds = %24
  call void @llvm.lifetime.start.p0(i64 8, ptr %11) #4
  %30 = load ptr, ptr %9, align 8, !tbaa !298
  %31 = load ptr, ptr %30, align 8, !tbaa !222
  store ptr %31, ptr %11, align 8, !tbaa !222
  %32 = load ptr, ptr %11, align 8, !tbaa !222
  %33 = getelementptr inbounds nuw %"class.Luau::AstNode", ptr %32, i32 0, i32 2
  %34 = call noundef zeroext i1 @_ZNK4Luau8Location14containsClosedERKNS_8PositionE(ptr noundef nonnull align 4 dereferenceable(16) %33, ptr noundef nonnull align 4 dereferenceable(8) %4)
  br i1 %34, label %35, label %36

35:                                               ; preds = %29
  store i1 false, ptr %3, align 1
  store i32 1, ptr %7, align 4
  br label %37

36:                                               ; preds = %29
  store i32 0, ptr %7, align 4
  br label %37

37:                                               ; preds = %36, %35
  call void @llvm.lifetime.end.p0(i64 8, ptr %11) #4
  %38 = load i32, ptr %7, align 4
  switch i32 %38, label %43 [
    i32 0, label %39
  ]

39:                                               ; preds = %37
  br label %40

40:                                               ; preds = %39
  %41 = load ptr, ptr %9, align 8, !tbaa !298
  %42 = getelementptr inbounds nuw ptr, ptr %41, i32 1
  store ptr %42, ptr %9, align 8, !tbaa !298
  br label %24

43:                                               ; preds = %37, %28
  call void @llvm.lifetime.end.p0(i64 8, ptr %10) #4
  call void @llvm.lifetime.end.p0(i64 8, ptr %9) #4
  call void @llvm.lifetime.end.p0(i64 8, ptr %8) #4
  %44 = load i32, ptr %7, align 4
  switch i32 %44, label %46 [
    i32 2, label %45
  ]

45:                                               ; preds = %43
  store i1 true, ptr %3, align 1
  store i32 1, ptr %7, align 4
  br label %46

46:                                               ; preds = %45, %43, %16
  call void @llvm.lifetime.end.p0(i64 8, ptr %6) #4
  %47 = load i1, ptr %3, align 1
  ret i1 %47
}